target datalayout = "e-m:e-p270:32:32-p271:32:32-p272:64:64-i64:64-i128:128-f80:128-n8:16:32:64-S128"
target triple = "x86_64-pc-linux-gnu"

%struct._lv_buttonmatrix_t = type { %struct._lv_obj_t, ptr, ptr, ptr, i32, i32, i32, i8 }
%struct._lv_obj_t = type { ptr, ptr, ptr, ptr, ptr, %struct.lv_area_t, i32, i16, i16 }
%struct.lv_area_t = type { i32, i32, i32, i32 }

@.str.1 = private unnamed_addr constant [2 x i8] c"\0A\00", align 1

; Function Attrs: nounwind uwtable
define ptr @lv_buttonmatrix_get_button_text(ptr noundef %0, i32 noundef %1) #0 {
  %3 = alloca ptr, align 8
  %4 = alloca ptr, align 8
  %5 = alloca i32, align 4
  %6 = alloca ptr, align 8
  %7 = alloca i32, align 4
  %8 = alloca i32, align 4
  %9 = alloca i32, align 4
  store ptr %0, ptr %4, align 8, !tbaa !3
  store i32 %1, ptr %5, align 4, !tbaa !18
  br label %10

10:                                               ; preds = %2
  br label %11

11:                                               ; preds = %10
  %12 = load i32, ptr %5, align 4, !tbaa !18
  %13 = icmp eq i32 %12, 65535
  br i1 %13, label %14, label %15

14:                                               ; preds = %11
  store ptr null, ptr %3, align 8
  br label %63

15:                                               ; preds = %11
  call void @llvm.lifetime.start.p0(i64 8, ptr %6) #4
  %16 = load ptr, ptr %4, align 8, !tbaa !3
  store ptr %16, ptr %6, align 8, !tbaa !3
  %17 = load i32, ptr %5, align 4, !tbaa !18
  %18 = load ptr, ptr %6, align 8, !tbaa !3
  %19 = getelementptr inbounds nuw %struct._lv_buttonmatrix_t, ptr %18, i32 0, i32 4
  %20 = load i32, ptr %19, align 8, !tbaa !7
  %21 = icmp ugt i32 %17, %20
  br i1 %21, label %22, label %23

22:                                               ; preds = %15
  store ptr null, ptr %3, align 8
  store i32 1, ptr %7, align 4
  br label %62

23:                                               ; preds = %15
  call void @llvm.lifetime.start.p0(i64 4, ptr %8) #4
  store i32 0, ptr %8, align 4, !tbaa !18
  call void @llvm.lifetime.start.p0(i64 4, ptr %9) #4
  store i32 0, ptr %9, align 4, !tbaa !18
  br label %24

24:                                               ; preds = %45, %23
  %25 = load i32, ptr %9, align 4, !tbaa !18
  %26 = load i32, ptr %5, align 4, !tbaa !18
  %27 = icmp ne i32 %25, %26
  br i1 %27, label %28, label %46

28:                                               ; preds = %24
  %29 = load i32, ptr %9, align 4, !tbaa !18
  %30 = add i32 %29, 1
  store i32 %30, ptr %9, align 4, !tbaa !18
  %31 = load i32, ptr %8, align 4, !tbaa !18
  %32 = add i32 %31, 1
  store i32 %32, ptr %8, align 4, !tbaa !18
  %33 = load ptr, ptr %6, align 8, !tbaa !3
  %34 = getelementptr inbounds nuw %struct._lv_buttonmatrix_t, ptr %33, i32 0, i32 1
  %35 = load ptr, ptr %34, align 8, !tbaa !17
  %36 = load i32, ptr %8, align 4, !tbaa !18
  %37 = zext i32 %36 to i64
  %38 = getelementptr inbounds nuw ptr, ptr %35, i64 %37
  %39 = load ptr, ptr %38, align 8, !tbaa !3
  %40 = call i32 @lv_strcmp(ptr noundef %39, ptr noundef @.str.1)
  %41 = icmp eq i32 %40, 0
  br i1 %41, label %42, label %45

42:                                               ; preds = %28
  %43 = load i32, ptr %8, align 4, !tbaa !18
  %44 = add i32 %43, 1
  store i32 %44, ptr %8, align 4, !tbaa !18
  br label %45

45:                                               ; preds = %42, %28
  br label %24, !llvm.loop !44

46:                                               ; preds = %24
  %47 = load i32, ptr %9, align 4, !tbaa !18
  %48 = load ptr, ptr %6, align 8, !tbaa !3
  %49 = getelementptr inbounds nuw %struct._lv_buttonmatrix_t, ptr %48, i32 0, i32 4
  %50 = load i32, ptr %49, align 8, !tbaa !7
  %51 = icmp eq i32 %47, %50
  br i1 %51, label %52, label %53

52:                                               ; preds = %46
  store ptr null, ptr %3, align 8
  store i32 1, ptr %7, align 4
  br label %61

53:                                               ; preds = %46
  %54 = load ptr, ptr %6, align 8, !tbaa !3
  %55 = getelementptr inbounds nuw %struct._lv_buttonmatrix_t, ptr %54, i32 0, i32 1
  %56 = load ptr, ptr %55, align 8, !tbaa !17
  %57 = load i32, ptr %8, align 4, !tbaa !18
  %58 = zext i32 %57 to i64
  %59 = getelementptr inbounds nuw ptr, ptr %56, i64 %58
  %60 = load ptr, ptr %59, align 8, !tbaa !3
  store ptr %60, ptr %3, align 8
  store i32 1, ptr %7, align 4
  br label %61

61:                                               ; preds = %53, %52
  call void @llvm.lifetime.end.p0(i64 4, ptr %9) #4
  call void @llvm.lifetime.end.p0(i64 4, ptr %8) #4
  br label %62

62:                                               ; preds = %61, %22
  call void @llvm.lifetime.end.p0(i64 8, ptr %6) #4
  br label %63

63:                                               ; preds = %62, %14
  %64 = load ptr, ptr %3, align 8
  ret ptr %64
}