; Function Attrs: nounwind uwtable
define ptr @lv_buttonmatrix_get_button_text(ptr nocapture noundef readonly %0, i32 noundef %1) local_unnamed_addr #0 {
  %3 = icmp eq i32 %1, 65535
  br i1 %3, label %27, label %4

4:                                                ; preds = %2
  %5 = getelementptr inbounds nuw i8, ptr %0, i64 88
  %6 = load i32, ptr %5, align 8, !tbaa !3
  %7 = icmp ugt i32 %1, %6
  br i1 %7, label %27, label %.preheader

.preheader:                                       ; preds = %4
  %.not19 = icmp eq i32 %1, 0
  br i1 %.not19, label %._crit_edge, label %.lr.ph

.lr.ph:                                           ; preds = %.preheader
  %8 = getelementptr inbounds nuw i8, ptr %0, i64 64
  br label %9

9:                                                ; preds = %.lr.ph, %9
  %.021 = phi i32 [ 0, %.lr.ph ], [ %10, %9 ]
  %.01520 = phi i32 [ 0, %.lr.ph ], [ %spec.select, %9 ]
  %10 = add nuw i32 %.021, 1
  %11 = add i32 %.01520, 1
  %12 = load ptr, ptr %8, align 8, !tbaa !16
  %13 = zext i32 %11 to i64
  %14 = getelementptr inbounds nuw ptr, ptr %12, i64 %13
  %15 = load ptr, ptr %14, align 8, !tbaa !17
  %16 = tail call i32 @lv_strcmp(ptr noundef %15, ptr noundef nonnull @.str.1) #7
  %17 = icmp eq i32 %16, 0
  %18 = add i32 %.01520, 2
  %spec.select = select i1 %17, i32 %18, i32 %11
  %.not = icmp eq i32 %10, %1
  br i1 %.not, label %._crit_edge.loopexit, label %9, !llvm.loop !40

._crit_edge.loopexit:                             ; preds = %9
  %.pre = load i32, ptr %5, align 8, !tbaa !3
  %19 = zext i32 %spec.select to i64
  br label %._crit_edge

._crit_edge:                                      ; preds = %._crit_edge.loopexit, %.preheader
  %20 = phi i32 [ %6, %.preheader ], [ %.pre, %._crit_edge.loopexit ]
  %.015.lcssa = phi i64 [ 0, %.preheader ], [ %19, %._crit_edge.loopexit ]
  %21 = icmp eq i32 %1, %20
  br i1 %21, label %27, label %22

22:                                               ; preds = %._crit_edge
  %23 = getelementptr inbounds nuw i8, ptr %0, i64 64
  %24 = load ptr, ptr %23, align 8, !tbaa !16
  %25 = getelementptr inbounds nuw ptr, ptr %24, i64 %.015.lcssa
  %26 = load ptr, ptr %25, align 8, !tbaa !17
  br label %27

27:                                               ; preds = %4, %._crit_edge, %22, %2
  %.016 = phi ptr [ null, %2 ], [ null, %4 ], [ %26, %22 ], [ null, %._crit_edge ]
  ret ptr %.016
}